; Function Attrs: nounwind uwtable
define internal ptr @lru_cache_descr_get(ptr noundef %0, ptr noundef %1, ptr readnone captures(none) %2) #0 {
  %4 = icmp eq ptr %1, @_Py_NoneStruct
  %5 = icmp eq ptr %1, null
  %or.cond = or i1 %4, %5
  br i1 %or.cond, label %6, label %11

6:                                                ; preds = %3
  %7 = load i32, ptr %0, align 8, !tbaa !21
  %8 = icmp slt i32 %7, 0
  br i1 %8, label %_Py_NewRef.exit, label %9

9:                                                ; preds = %6
  %10 = add nuw i32 %7, 1
  store i32 %10, ptr %0, align 8, !tbaa !21
  br label %_Py_NewRef.exit

11:                                               ; preds = %3
  %12 = tail call ptr @PyMethod_New(ptr noundef %0, ptr noundef %1) #9
  br label %_Py_NewRef.exit

_Py_NewRef.exit:                                  ; preds = %9, %6, %11
  %.0 = phi ptr [ %12, %11 ], [ %0, %6 ], [ %0, %9 ]
  ret ptr %.0
}